ccopy_reg
_reconstructor
p0
(cpystruct.models.latent_topic_rf
LatentTRF
p1
c__builtin__
object
p2
Ntp3
Rp4
(dp5
S'inference_calls'
p6
I10000
sS'n_classes'
p7
I2
sS'n_states'
p8
I4
sS'inference_method'
p9
S'lp'
p10
sS'size_psi'
p11
I1628
sS'neighborhood'
p12
I4
sS'n_features'
p13
I200
sS'class_weight'
p14
cnumpy.core.multiarray
_reconstruct
p15
(cnumpy
ndarray
p16
(I0
tp17
S'b'
p18
tp19
Rp20
(I1
(I2
tp21
cnumpy
dtype
p22
(S'f8'
p23
I0
I1
tp24
Rp25
(I3
S'<'
p26
NNNI-1
I-1
I0
tp27
bI00
S'\x00\x00\x00\x00\x00\x00\xf0?\x00\x00\x00\x00\x00\x00\xf0?'
p28
tp29
bsb.